target datalayout = "e-m:e-p270:32:32-p271:32:32-p272:64:64-i64:64-i128:128-f80:128-n8:16:32:64-S128"
target triple = "x86_64-unknown-linux-gnu"

; Function Attrs: mustprogress nounwind uwtable
define noundef zeroext i1 @_ZN8proxygen7RFC261623responseBodyMustBeEmptyEj(i32 noundef %status) #1 {
entry:
  %status.addr = alloca i32, align 4
  store i32 %status, ptr %status.addr, align 4
  %0 = load i32, ptr %status.addr, align 4
  %cmp = icmp eq i32 %0, 304
  br i1 %cmp, label %lor.end, label %lor.lhs.false

lor.lhs.false:                                    ; preds = %entry
  %1 = load i32, ptr %status.addr, align 4
  %cmp1 = icmp eq i32 %1, 204
  br i1 %cmp1, label %lor.end, label %lor.rhs

lor.rhs:                                          ; preds = %lor.lhs.false
  %2 = load i32, ptr %status.addr, align 4
  %cmp2 = icmp ule i32 100, %2
  br i1 %cmp2, label %land.rhs, label %land.end

land.rhs:                                         ; preds = %lor.rhs
  %3 = load i32, ptr %status.addr, align 4
  %cmp3 = icmp ult i32 %3, 200
  br label %land.end

land.end:                                         ; preds = %land.rhs, %lor.rhs
  %4 = phi i1 [ false, %lor.rhs ], [ %cmp3, %land.rhs ]
  br label %lor.end

lor.end:                                          ; preds = %land.end, %lor.lhs.false, %entry
  %5 = phi i1 [ true, %lor.lhs.false ], [ true, %entry ], [ %4, %land.end ]
  ret i1 %5
}