; Function Attrs: mustprogress nofree norecurse nosync nounwind willreturn memory(none) uwtable
define noundef zeroext i1 @_ZN8proxygen7RFC261623responseBodyMustBeEmptyEj(i32 noundef %status) local_unnamed_addr #1 {
entry:
  switch i32 %status, label %lor.rhs [
    i32 304, label %lor.end
    i32 204, label %lor.end
  ]

lor.rhs:                                          ; preds = %entry
  %0 = add i32 %status, -100
  %1 = icmp ult i32 %0, 100
  br label %lor.end

lor.end:                                          ; preds = %entry, %entry, %lor.rhs
  %2 = phi i1 [ true, %entry ], [ %1, %lor.rhs ], [ true, %entry ]
  ret i1 %2
}